EXPORTS
    KTcp_CloseSocket @1
    KTcp_CopyBuffer @2
    KTcp_CopySocket @3
    KTcp_CreateBuffer @4
    KTcp_CreateReader @5
    KTcp_CreateServer @6
    KTcp_DestoryBuffer @7
    KTcp_DestoryReader @8
    KTcp_DestoryServer @9
    KTcp_DestorySocket @10
    KTcp_GetBufferPtr @11
    KTcp_GetBufferSize @12
    KTcp_GetServerThreads @13
    KTcp_GetSocketData @14
    KTcp_GetSocketLocalIp @15
    KTcp_GetSocketLocalPort @16
    KTcp_GetSocketNative @17
    KTcp_GetSocketRemoteIp @18
    KTcp_GetSocketRemotePort @19
    KTcp_IsServerStopped @20
    KTcp_JoinServer @21
    KTcp_RunServer @22
    KTcp_ServerWriteBuffer @23
    KTcp_ServerWriteBytes @24
    KTcp_SetServerOnAccept @25
    KTcp_SetServerOnClose @26
    KTcp_SetServerOnRecv @27
    KTcp_SetServerOnSend @28
    KTcp_SetSocketData @29
    KTcp_StopServer @30
    _Unwind_Backtrace @31
    _Unwind_DeleteException @32
    _Unwind_FindEnclosingFunction @33
    _Unwind_Find_FDE @34
    _Unwind_ForcedUnwind @35
    _Unwind_GetCFA @36
    _Unwind_GetDataRelBase @37
    _Unwind_GetGR @38
    _Unwind_GetIP @39
    _Unwind_GetIPInfo @40
    _Unwind_GetLanguageSpecificData @41
    _Unwind_GetRegionStart @42
    _Unwind_GetTextRelBase @43
    _Unwind_RaiseException @44
    _Unwind_Resume @45
    _Unwind_Resume_or_Rethrow @46
    _Unwind_SetGR @47
    _Unwind_SetIP @48
    _Z19__dtcp__server_recvPFvPN4king3net3tcp12msg_server_tIjLj8192EEEPSt10shared_ptrINS1_8socket_tINS1_8msg_dataIjLj8192EEEEEEPS5_INS_5bytes7bytes_tEEES4_SA_SE_ @49
    _Z19__dtcp__server_sendPFvPN4king3net3tcp12msg_server_tIjLj8192EEEPSt10shared_ptrINS1_8socket_tINS1_8msg_dataIjLj8192EEEEEEPS5_INS_5bytes7bytes_tEEES4_SA_SE_ @50
    _Z20__dtcp__server_closePFvPN4king3net3tcp12msg_server_tIjLj8192EEEPSt10shared_ptrINS1_8socket_tINS1_8msg_dataIjLj8192EEEEEEES4_SA_ @51
    _Z21__dtcp__server_acceptPFvPN4king3net3tcp12msg_server_tIjLj8192EEEPSt10shared_ptrINS1_8socket_tINS1_8msg_dataIjLj8192EEEEEEES4_SA_ @52
    _ZGVN5boost16exception_detail37exception_ptr_static_exception_objectINS0_10bad_alloc_EE1eE @53 DATA
    _ZGVN5boost16exception_detail37exception_ptr_static_exception_objectINS0_14bad_exception_EE1eE @54 DATA
    _ZGVN5boost4asio6detail10call_stackINS1_14strand_service11strand_implEhE4top_E @55 DATA
    _ZGVN5boost4asio6detail10call_stackINS1_19win_iocp_io_serviceENS1_20win_iocp_thread_infoEE4top_E @56 DATA
    _ZGVN5boost4asio6detail12service_baseINS0_21stream_socket_serviceINS0_2ip3tcpEEEE2idE @57 DATA
    _ZGVN5boost4asio6detail12service_baseINS0_23socket_acceptor_serviceINS0_2ip3tcpEEEE2idE @58 DATA
    _ZGVN5boost4asio6detail12service_baseINS1_14select_reactorEE2idE @59 DATA
    _ZGVN5boost4asio6detail12service_baseINS1_14strand_serviceEE2idE @60 DATA
    _ZGVN5boost4asio6detail12service_baseINS1_19win_iocp_io_serviceEE2idE @61 DATA
    _ZGVZN5boost16exception_detail27get_static_exception_objectINS0_10bad_alloc_EEENS_13exception_ptrEvE2ep @62 DATA
    _ZGVZN5boost16exception_detail27get_static_exception_objectINS0_14bad_exception_EEENS_13exception_ptrEvE2ep @63 DATA
    _ZGVZN5boost4asio5error17get_misc_categoryEvE8instance @64 DATA
    _ZN4king3net3tcp12msg_server_tIjLj8192EE15adapter_recv_bfEPNS1_8server_tINS1_8msg_dataIjLj8192EEEEESt10shared_ptrINS1_8socket_tIS6_EEEPKhj @65
    _ZN4king3net3tcp12msg_server_tIjLj8192EE15adapter_send_bfEPNS1_8server_tINS1_8msg_dataIjLj8192EEEEESt10shared_ptrINS1_8socket_tIS6_EEES9_INS_5bytes7bytes_tEE @66
    _ZN4king3net3tcp12msg_server_tIjLj8192EE16adapter_close_bfEPNS1_8server_tINS1_8msg_dataIjLj8192EEEEESt10shared_ptrINS1_8socket_tIS6_EEE @67
    _ZN4king3net3tcp12msg_server_tIjLj8192EE17adapter_accept_bfEPNS1_8server_tINS1_8msg_dataIjLj8192EEEEESt10shared_ptrINS1_8socket_tIS6_EEE @68
    _ZN4king3net3tcp12msg_server_tIjLj8192EEC1EtRKNS1_12msg_reader_tEj @69
    _ZN4king3net3tcp8server_tINS1_8msg_dataIjLj8192EEEE10post_writeESt10shared_ptrINS1_8socket_tIS4_EEES6_INS_5bytes7bytes_tEE @70
    _ZN4king3net3tcp8server_tINS1_8msg_dataIjLj8192EEEE11post_acceptEv @71
    _ZN4king3net3tcp8server_tINS1_8msg_dataIjLj8192EEEE11work_threadEv @72
    _ZN4king3net3tcp8server_tINS1_8msg_dataIjLj8192EEEE15push_back_writeESt10shared_ptrINS1_8socket_tIS4_EEES6_INS_5bytes7bytes_tEE @73
    _ZN4king3net3tcp8server_tINS1_8msg_dataIjLj8192EEEE17post_recv_handlerERKN5boost6system10error_codeESt10shared_ptrINS1_8socket_tIS4_EEESB_INS_5bytes7bytes_tEEj @74
    _ZN4king3net3tcp8server_tINS1_8msg_dataIjLj8192EEEE18post_write_handlerERKN5boost6system10error_codeESt10shared_ptrINS1_8socket_tIS4_EEESB_INS_5bytes7bytes_tEE @75
    _ZN4king3net3tcp8server_tINS1_8msg_dataIjLj8192EEEE19post_accept_handlerERKN5boost6system10error_codeESt10shared_ptrINS1_8socket_tIS4_EEE @76
    _ZN4king3net3tcp8server_tINS1_8msg_dataIjLj8192EEEE9post_recvESt10shared_ptrINS1_8socket_tIS4_EEES6_INS_5bytes7bytes_tEE @77
    _ZN4king3net3tcp8server_tINS1_8msg_dataIjLj8192EEEEC1Etj @78
    _ZN4king3net3tcp8server_tINS1_8msg_dataIjLj8192EEEED1Ev @79
    _ZN4king5bytes15fragmentation_t5writeEPKhj @80
    _ZN4king5bytes7bytes_tD0Ev @81
    _ZN4king5bytes7bytes_tD1Ev @82
    _ZN4king5bytes8buffer_t20create_fragmentationEj @83
    _ZN4king5bytes8buffer_t5writeEPKhj @84
    _ZN5boost10lock_errorD0Ev @85
    _ZN5boost10lock_errorD1Ev @86
    _ZN5boost11shared_lockINS_12shared_mutexEE4lockEv @87
    _ZN5boost11this_thread18interruptible_waitEPvNS_6detail7timeoutE @88
    _ZN5boost11this_thread18interruption_pointEv @89
    _ZN5boost11this_thread20disable_interruptionC1Ev @90
    _ZN5boost11this_thread20disable_interruptionC2Ev @91
    _ZN5boost11this_thread20disable_interruptionD1Ev @92
    _ZN5boost11this_thread20disable_interruptionD2Ev @93
    _ZN5boost11this_thread20interruption_enabledEv @94
    _ZN5boost11this_thread20restore_interruptionC1ERNS0_20disable_interruptionE @95
    _ZN5boost11this_thread20restore_interruptionC2ERNS0_20disable_interruptionE @96
    _ZN5boost11this_thread20restore_interruptionD1Ev @97
    _ZN5boost11this_thread20restore_interruptionD2Ev @98
    _ZN5boost11this_thread21no_interruption_point22non_interruptible_waitEPvNS_6detail7timeoutE @99
    _ZN5boost11this_thread22interruption_requestedEv @100
    _ZN5boost11this_thread5yieldEv @101
    _ZN5boost11this_thread6get_idEv @102
    _ZN5boost11unique_lockINS_5mutexEE4lockEv @103
    _ZN5boost12shared_mutex13unlock_sharedEv @104
    _ZN5boost12shared_mutex17timed_lock_sharedERKNS_10posix_time5ptimeE @105
    _ZN5boost12shared_mutex6unlockEv @106
    _ZN5boost12thread_group8join_allEv @107
    _ZN5boost12thread_groupD1Ev @108
    _ZN5boost14on_thread_exitEv @109
    _ZN5boost15on_process_exitEv @110
    _ZN5boost15on_thread_enterEv @111
    _ZN5boost15throw_exceptionINS_10lock_errorEEEvRKT_ @112
    _ZN5boost15throw_exceptionINS_17bad_function_callEEEvRKT_ @113
    _ZN5boost15throw_exceptionINS_21thread_resource_errorEEEvRKT_ @114
    _ZN5boost15throw_exceptionINS_6system12system_errorEEEvRKT_ @115
    _ZN5boost15throw_exceptionINS_9gregorian16bad_day_of_monthEEEvRKT_ @116
    _ZN5boost15throw_exceptionINS_9gregorian8bad_yearEEEvRKT_ @117
    _ZN5boost15throw_exceptionINS_9gregorian9bad_monthEEEvRKT_ @118
    _ZN5boost15throw_exceptionISt13runtime_errorEEvRKT_ @119
    _ZN5boost15throw_exceptionISt9bad_allocEEvRKT_ @120
    _ZN5boost16exception_detail10bad_alloc_D0Ev @121
    _ZN5boost16exception_detail10bad_alloc_D1Ev @122
    _ZN5boost16exception_detail10clone_implINS0_10bad_alloc_EED0Ev @123
    _ZN5boost16exception_detail10clone_implINS0_10bad_alloc_EED1Ev @124
    _ZN5boost16exception_detail10clone_implINS0_14bad_exception_EED0Ev @125
    _ZN5boost16exception_detail10clone_implINS0_14bad_exception_EED1Ev @126
    _ZN5boost16exception_detail10clone_implINS0_19error_info_injectorINS_10lock_errorEEEED0Ev @127
    _ZN5boost16exception_detail10clone_implINS0_19error_info_injectorINS_10lock_errorEEEED1Ev @128
    _ZN5boost16exception_detail10clone_implINS0_19error_info_injectorINS_17bad_function_callEEEED0Ev @129
    _ZN5boost16exception_detail10clone_implINS0_19error_info_injectorINS_17bad_function_callEEEED1Ev @130
    _ZN5boost16exception_detail10clone_implINS0_19error_info_injectorINS_21thread_resource_errorEEEED0Ev @131
    _ZN5boost16exception_detail10clone_implINS0_19error_info_injectorINS_21thread_resource_errorEEEED1Ev @132
    _ZN5boost16exception_detail10clone_implINS0_19error_info_injectorINS_6system12system_errorEEEED0Ev @133
    _ZN5boost16exception_detail10clone_implINS0_19error_info_injectorINS_6system12system_errorEEEED1Ev @134
    _ZN5boost16exception_detail10clone_implINS0_19error_info_injectorINS_9gregorian16bad_day_of_monthEEEED0Ev @135
    _ZN5boost16exception_detail10clone_implINS0_19error_info_injectorINS_9gregorian16bad_day_of_monthEEEED1Ev @136
    _ZN5boost16exception_detail10clone_implINS0_19error_info_injectorINS_9gregorian8bad_yearEEEED0Ev @137
    _ZN5boost16exception_detail10clone_implINS0_19error_info_injectorINS_9gregorian8bad_yearEEEED1Ev @138
    _ZN5boost16exception_detail10clone_implINS0_19error_info_injectorINS_9gregorian9bad_monthEEEED0Ev @139
    _ZN5boost16exception_detail10clone_implINS0_19error_info_injectorINS_9gregorian9bad_monthEEEED1Ev @140
    _ZN5boost16exception_detail10clone_implINS0_19error_info_injectorISt13runtime_errorEEED0Ev @141
    _ZN5boost16exception_detail10clone_implINS0_19error_info_injectorISt13runtime_errorEEED1Ev @142
    _ZN5boost16exception_detail10clone_implINS0_19error_info_injectorISt9bad_allocEEED0Ev @143
    _ZN5boost16exception_detail10clone_implINS0_19error_info_injectorISt9bad_allocEEED1Ev @144
    _ZN5boost16exception_detail14bad_exception_D0Ev @145
    _ZN5boost16exception_detail14bad_exception_D1Ev @146
    _ZN5boost16exception_detail19error_info_injectorINS_10lock_errorEEC2ERKS3_ @147
    _ZN5boost16exception_detail19error_info_injectorINS_10lock_errorEED0Ev @148
    _ZN5boost16exception_detail19error_info_injectorINS_10lock_errorEED1Ev @149
    _ZN5boost16exception_detail19error_info_injectorINS_17bad_function_callEEC2ERKS3_ @150
    _ZN5boost16exception_detail19error_info_injectorINS_17bad_function_callEED0Ev @151
    _ZN5boost16exception_detail19error_info_injectorINS_17bad_function_callEED1Ev @152
    _ZN5boost16exception_detail19error_info_injectorINS_21thread_resource_errorEEC2ERKS3_ @153
    _ZN5boost16exception_detail19error_info_injectorINS_21thread_resource_errorEED0Ev @154
    _ZN5boost16exception_detail19error_info_injectorINS_21thread_resource_errorEED1Ev @155
    _ZN5boost16exception_detail19error_info_injectorINS_6system12system_errorEEC2ERKS4_ @156
    _ZN5boost16exception_detail19error_info_injectorINS_6system12system_errorEED0Ev @157
    _ZN5boost16exception_detail19error_info_injectorINS_6system12system_errorEED1Ev @158
    _ZN5boost16exception_detail19error_info_injectorINS_9gregorian16bad_day_of_monthEEC2ERKS4_ @159
    _ZN5boost16exception_detail19error_info_injectorINS_9gregorian16bad_day_of_monthEED0Ev @160
    _ZN5boost16exception_detail19error_info_injectorINS_9gregorian16bad_day_of_monthEED1Ev @161
    _ZN5boost16exception_detail19error_info_injectorINS_9gregorian8bad_yearEEC2ERKS4_ @162
    _ZN5boost16exception_detail19error_info_injectorINS_9gregorian8bad_yearEED0Ev @163
    _ZN5boost16exception_detail19error_info_injectorINS_9gregorian8bad_yearEED1Ev @164
    _ZN5boost16exception_detail19error_info_injectorINS_9gregorian9bad_monthEEC2ERKS4_ @165
    _ZN5boost16exception_detail19error_info_injectorINS_9gregorian9bad_monthEED0Ev @166
    _ZN5boost16exception_detail19error_info_injectorINS_9gregorian9bad_monthEED1Ev @167
    _ZN5boost16exception_detail19error_info_injectorISt13runtime_errorEC2ERKS3_ @168
    _ZN5boost16exception_detail19error_info_injectorISt13runtime_errorED0Ev @169
    _ZN5boost16exception_detail19error_info_injectorISt13runtime_errorED1Ev @170
    _ZN5boost16exception_detail19error_info_injectorISt9bad_allocEC2ERKS3_ @171
    _ZN5boost16exception_detail19error_info_injectorISt9bad_allocED0Ev @172
    _ZN5boost16exception_detail19error_info_injectorISt9bad_allocED1Ev @173
    _ZN5boost16exception_detail20copy_boost_exceptionEPNS_9exceptionEPKS1_ @174
    _ZN5boost16exception_detail25error_info_container_impl3setERKNS_10shared_ptrINS0_15error_info_baseEEERKNS0_10type_info_E @175
    _ZN5boost16exception_detail27get_static_exception_objectINS0_10bad_alloc_EEENS_13exception_ptrEv @176
    _ZN5boost16exception_detail27get_static_exception_objectINS0_14bad_exception_EEENS_13exception_ptrEv @177
    _ZN5boost16exception_detail37exception_ptr_static_exception_objectINS0_10bad_alloc_EE1eE @178 DATA
    _ZN5boost16exception_detail37exception_ptr_static_exception_objectINS0_14bad_exception_EE1eE @179 DATA
    _ZN5boost16on_process_enterEv @180
    _ZN5boost16thread_exceptionC2EiPKc @181
    _ZN5boost16thread_exceptionD0Ev @182
    _ZN5boost16thread_exceptionD1Ev @183
    _ZN5boost17bad_function_callD0Ev @184
    _ZN5boost17bad_function_callD1Ev @185
    _ZN5boost21thread_resource_errorD0Ev @186
    _ZN5boost21thread_resource_errorD1Ev @187
    _ZN5boost23tss_cleanup_implementedEv @188
    _ZN5boost25notify_all_at_thread_exitERNS_18condition_variableENS_11unique_lockINS_5mutexEEE @189
    _ZN5boost2CV23simple_exception_policyItLt1400ELt10000ENS_9gregorian8bad_yearEE8on_errorEttNS0_14violation_enumE @190
    _ZN5boost2CV23simple_exception_policyItLt1ELt12ENS_9gregorian9bad_monthEE8on_errorEttNS0_14violation_enumE @191
    _ZN5boost2CV23simple_exception_policyItLt1ELt31ENS_9gregorian16bad_day_of_monthEE8on_errorEttNS0_14violation_enumE @192
    _ZN5boost3_bi8storage4INS0_5valueIPN4king3net3tcp8server_tINS5_8msg_dataIjLj8192EEEEEEEPFNS_3argILi1EEEvENS2_ISt10shared_ptrINS5_8socket_tIS8_EEEEENS2_ISG_INS3_5bytes7bytes_tEEEEED2Ev @193
    _ZN5boost4asio10io_service7service12fork_serviceENS1_10fork_eventE @194
    _ZN5boost4asio10io_serviceD1Ev @195
    _ZN5boost4asio15basic_io_objectINS0_21stream_socket_serviceINS0_2ip3tcpEEELb1EED2Ev @196
    _ZN5boost4asio15basic_io_objectINS0_23socket_acceptor_serviceINS0_2ip3tcpEEELb1EED2Ev @197
    _ZN5boost4asio21stream_socket_serviceINS0_2ip3tcpEE16shutdown_serviceEv @198
    _ZN5boost4asio21stream_socket_serviceINS0_2ip3tcpEED0Ev @199
    _ZN5boost4asio21stream_socket_serviceINS0_2ip3tcpEED1Ev @200
    _ZN5boost4asio23socket_acceptor_serviceINS0_2ip3tcpEE16shutdown_serviceEv @201
    _ZN5boost4asio23socket_acceptor_serviceINS0_2ip3tcpEED0Ev @202
    _ZN5boost4asio23socket_acceptor_serviceINS0_2ip3tcpEED1Ev @203
    _ZN5boost4asio5error6detail13misc_categoryD0Ev @204
    _ZN5boost4asio5error6detail13misc_categoryD1Ev @205
    _ZN5boost4asio6detail10call_stackINS1_14strand_service11strand_implEhE4top_E @206 DATA
    _ZN5boost4asio6detail10call_stackINS1_19win_iocp_io_serviceENS1_20win_iocp_thread_infoEE4top_E @207 DATA
    _ZN5boost4asio6detail10socket_ops5closeEjRhbRNS_6system10error_codeE @208
    _ZN5boost4asio6detail10socket_ops6socketEiiiRNS_6system10error_codeE @209
    _ZN5boost4asio6detail12apc_functionEm@4 @210
    _ZN5boost4asio6detail12winsock_initILi2ELi0EE5data_E @211 DATA
    _ZN5boost4asio6detail14do_throw_errorERKNS_6system10error_codeE @212
    _ZN5boost4asio6detail14do_throw_errorERKNS_6system10error_codeEPKc @213
    _ZN5boost4asio6detail14select_reactor21deregister_descriptorEjRNS2_19per_descriptor_dataEb @214
    _ZN5boost4asio6detail15win_thread_baseINS1_10win_threadEE18terminate_threads_E @215 DATA
    _ZN5boost4asio6detail16service_registry14do_use_serviceERKNS0_10io_service7service3keyEPFPS4_RS3_E @216
    _ZN5boost4asio6detail16service_registry6createINS0_21stream_socket_serviceINS0_2ip3tcpEEEEEPNS0_10io_service7serviceERS8_ @217
    _ZN5boost4asio6detail16service_registry6createINS0_23socket_acceptor_serviceINS0_2ip3tcpEEEEEPNS0_10io_service7serviceERS8_ @218
    _ZN5boost4asio6detail19win_iocp_io_service10on_pendingEPNS1_18win_iocp_operationE @219
    _ZN5boost4asio6detail19win_iocp_io_service13on_completionEPNS1_18win_iocp_operationEmm @220
    _ZN5boost4asio6detail19win_iocp_io_service16shutdown_serviceEv @221
    _ZN5boost4asio6detail19win_iocp_io_service4stopEv @222
    _ZN5boost4asio6detail19win_iocp_io_serviceD0Ev @223
    _ZN5boost4asio6detail19win_iocp_io_serviceD1Ev @224
    _ZN5boost4asio6detail23win_iocp_socket_recv_opINS0_17mutable_buffers_1ENS_3_bi6bind_tIvNS_4_mfi3mf4IvN4king3net3tcp8server_tINSA_8msg_dataIjLj8192EEEEERKNS_6system10error_codeESt10shared_ptrINSA_8socket_tISD_EEESJ_INS8_5bytes7bytes_tEEjEENS4_5list5INS4_5valueIPSE_EEPFNS_3argILi1EEEvENSS_ISM_EENSS_ISP_EEPFNSV_ILi2EEEvEEEEEE11do_completeEPNS1_19win_iocp_io_serviceEPNS1_18win_iocp_operationESI_j @225
    _ZN5boost4asio6detail23win_iocp_socket_recv_opINS0_17mutable_buffers_1ENS_3_bi6bind_tIvNS_4_mfi3mf4IvN4king3net3tcp8server_tINSA_8msg_dataIjLj8192EEEEERKNS_6system10error_codeESt10shared_ptrINSA_8socket_tISD_EEESJ_INS8_5bytes7bytes_tEEjEENS4_5list5INS4_5valueIPSE_EEPFNS_3argILi1EEEvENSS_ISM_EENSS_ISP_EEPFNSV_ILi2EEEvEEEEEE3ptr5resetEv @226
    _ZN5boost4asio6detail23win_iocp_socket_send_opINS0_17mutable_buffers_1ENS_3_bi6bind_tIvNS_4_mfi3mf3IvN4king3net3tcp8server_tINSA_8msg_dataIjLj8192EEEEERKNS_6system10error_codeESt10shared_ptrINSA_8socket_tISD_EEESJ_INS8_5bytes7bytes_tEEEENS4_5list4INS4_5valueIPSE_EEPFNS_3argILi1EEEvENSS_ISM_EENSS_ISP_EEEEEEE11do_completeEPNS1_19win_iocp_io_serviceEPNS1_18win_iocp_operationESI_j @227
    _ZN5boost4asio6detail23win_iocp_socket_send_opINS0_17mutable_buffers_1ENS_3_bi6bind_tIvNS_4_mfi3mf3IvN4king3net3tcp8server_tINSA_8msg_dataIjLj8192EEEEERKNS_6system10error_codeESt10shared_ptrINSA_8socket_tISD_EEESJ_INS8_5bytes7bytes_tEEEENS4_5list4INS4_5valueIPSE_EEPFNS_3argILi1EEEvENSS_ISM_EENSS_ISP_EEEEEEE3ptr5resetEv @228
    _ZN5boost4asio6detail25win_iocp_socket_accept_opINS0_12basic_socketINS0_2ip3tcpENS0_21stream_socket_serviceIS5_EEEES5_NS_3_bi6bind_tIvNS_4_mfi3mf2IvN4king3net3tcp8server_tINSF_8msg_dataIjLj8192EEEEERKNS_6system10error_codeESt10shared_ptrINSF_8socket_tISI_EEEEENS9_5list3INS9_5valueIPSJ_EEPFNS_3argILi1EEEvENSU_ISR_EEEEEEE11do_completeEPNS1_19win_iocp_io_serviceEPNS1_18win_iocp_operationESN_j @229
    _ZN5boost4asio6detail25win_iocp_socket_accept_opINS0_12basic_socketINS0_2ip3tcpENS0_21stream_socket_serviceIS5_EEEES5_NS_3_bi6bind_tIvNS_4_mfi3mf2IvN4king3net3tcp8server_tINSF_8msg_dataIjLj8192EEEEERKNS_6system10error_codeESt10shared_ptrINSF_8socket_tISI_EEEEENS9_5list3INS9_5valueIPSJ_EEPFNS_3argILi1EEEvENSU_ISR_EEEEEEE3ptr5resetEv @230
    _ZN5boost4asio6detail28win_iocp_socket_service_base16shutdown_serviceEv @231
    _ZN5boost4asio6detail28win_iocp_socket_service_base5closeERNS2_24base_implementation_typeERNS_6system10error_codeE @232
    _ZN5boost4asio6detail8op_queueINS1_18win_iocp_operationEED1Ev @233
    _ZN5boost6detail11thread_dataINS_3_bi6bind_tIvNS_4_mfi3mf0IvN4king3net3tcp8server_tINS8_8msg_dataIjLj8192EEEEEEENS2_5list1INS2_5valueIPSC_EEEEEEE3runEv @234
    _ZN5boost6detail11thread_dataINS_3_bi6bind_tIvNS_4_mfi3mf0IvN4king3net3tcp8server_tINS8_8msg_dataIjLj8192EEEEEEENS2_5list1INS2_5valueIPSC_EEEEEEED0Ev @235
    _ZN5boost6detail11thread_dataINS_3_bi6bind_tIvNS_4_mfi3mf0IvN4king3net3tcp8server_tINS8_8msg_dataIjLj8192EEEEEEENS2_5list1INS2_5valueIPSC_EEEEEEED1Ev @236
    _ZN5boost6detail12get_tss_dataEPKv @237
    _ZN5boost6detail12set_tss_dataEPKvNS_10shared_ptrINS0_20tss_cleanup_functionEEEPvb @238
    _ZN5boost6detail13find_tss_dataEPKv @239
    _ZN5boost6detail14erase_tss_nodeEPKv @240
    _ZN5boost6detail15sp_counted_base7destroyEv @241
    _ZN5boost6detail16add_new_tss_nodeEPKvNS_10shared_ptrINS0_20tss_cleanup_functionEEEPv @242
    _ZN5boost6detail16thread_data_base25notify_all_at_thread_exitEPNS_18condition_variableEPNS_5mutexE @243
    _ZN5boost6detail16thread_data_baseD0Ev @244
    _ZN5boost6detail16thread_data_baseD1Ev @245
    _ZN5boost6detail16thread_data_baseD2Ev @246
    _ZN5boost6detail17basic_timed_mutex6unlockEv @247
    _ZN5boost6detail17basic_timed_mutex9get_eventEv @248
    _ZN5boost6detail17sp_counted_impl_pINS_16exception_detail10clone_implINS2_10bad_alloc_EEEE11get_deleterERKSt9type_info @249
    _ZN5boost6detail17sp_counted_impl_pINS_16exception_detail10clone_implINS2_10bad_alloc_EEEE19get_untyped_deleterEv @250
    _ZN5boost6detail17sp_counted_impl_pINS_16exception_detail10clone_implINS2_10bad_alloc_EEEE7disposeEv @251
    _ZN5boost6detail17sp_counted_impl_pINS_16exception_detail10clone_implINS2_10bad_alloc_EEEED0Ev @252
    _ZN5boost6detail17sp_counted_impl_pINS_16exception_detail10clone_implINS2_10bad_alloc_EEEED1Ev @253
    _ZN5boost6detail17sp_counted_impl_pINS_16exception_detail10clone_implINS2_14bad_exception_EEEE11get_deleterERKSt9type_info @254
    _ZN5boost6detail17sp_counted_impl_pINS_16exception_detail10clone_implINS2_14bad_exception_EEEE19get_untyped_deleterEv @255
    _ZN5boost6detail17sp_counted_impl_pINS_16exception_detail10clone_implINS2_14bad_exception_EEEE7disposeEv @256
    _ZN5boost6detail17sp_counted_impl_pINS_16exception_detail10clone_implINS2_14bad_exception_EEEED0Ev @257
    _ZN5boost6detail17sp_counted_impl_pINS_16exception_detail10clone_implINS2_14bad_exception_EEEED1Ev @258
    _ZN5boost6detail20rollback_once_regionERNS_9once_flagERNS0_12once_contextE @259
    _ZN5boost6detail21intrusive_ptr_releaseEPNS0_16thread_data_baseE @260
    _ZN5boost6detail23get_current_thread_dataEv @261
    _ZN5boost6detail24add_thread_exit_functionEPNS0_25thread_exit_function_baseE @262
    _ZN5boost6detail5win3217release_semaphoreEPvl @263
    _ZN5boost6detail5win3223GetTickCount64emulationEv@0 @264
    _ZN5boost6detail8function15functor_managerINS_3_bi6bind_tIvNS_4_mfi3mf2IvN4king3net3tcp12msg_server_tIjLj8192EEEPNS9_8server_tINS9_8msg_dataIjLj8192EEEEESt10shared_ptrINS9_8socket_tISE_EEEEENS3_5list3INS3_5valueIPSB_EENS_3argILi1EEENSQ_ILi2EEEEEEEE6manageERKNS1_15function_bufferERSW_NS1_30functor_manager_operation_typeE @265
    _ZN5boost6detail8function15functor_managerINS_3_bi6bind_tIvNS_4_mfi3mf3IvN4king3net3tcp12msg_server_tIjLj8192EEEPNS9_8server_tINS9_8msg_dataIjLj8192EEEEESt10shared_ptrINS9_8socket_tISE_EEESH_INS7_5bytes7bytes_tEEEENS3_5list4INS3_5valueIPSB_EENS_3argILi1EEENST_ILi2EEENST_ILi3EEEEEEEE6manageERKNS1_15function_bufferERS10_NS1_30functor_manager_operation_typeE @266
    _ZN5boost6detail8function15functor_managerINS_3_bi6bind_tIvNS_4_mfi3mf4IvN4king3net3tcp12msg_server_tIjLj8192EEEPNS9_8server_tINS9_8msg_dataIjLj8192EEEEESt10shared_ptrINS9_8socket_tISE_EEEPKhjEENS3_5list5INS3_5valueIPSB_EENS_3argILi1EEENSS_ILi2EEENSS_ILi3EEENSS_ILi4EEEEEEEE6manageERKNS1_15function_bufferERS10_NS1_30functor_manager_operation_typeE @267
    _ZN5boost6detail8function15functor_managerINS_3_bi6bind_tIvPFvPFvPN4king3net3tcp12msg_server_tIjLj8192EEEPSt10shared_ptrINS7_8socket_tINS7_8msg_dataIjLj8192EEEEEEESA_SG_ENS3_5list3INS3_5valueISJ_EENS_3argILi1EEENSP_ILi2EEEEEEEE6manageERKNS1_15function_bufferERSV_NS1_30functor_manager_operation_typeE @268
    _ZN5boost6detail8function15functor_managerINS_3_bi6bind_tIvPFvPFvPN4king3net3tcp12msg_server_tIjLj8192EEEPSt10shared_ptrINS7_8socket_tINS7_8msg_dataIjLj8192EEEEEEPSB_INS5_5bytes7bytes_tEEESA_SG_SK_ENS3_5list4INS3_5valueISN_EENS_3argILi1EEENST_ILi2EEENST_ILi3EEEEEEEE6manageERKNS1_15function_bufferERS10_NS1_30functor_manager_operation_typeE @269
    _ZN5boost6detail8function15functor_managerIPFjPKhjEE6manageERKNS1_15function_bufferERS8_NS1_30functor_manager_operation_typeE @270
    _ZN5boost6detail8function16has_empty_targetEz @271
    _ZN5boost6detail8function17function_invoker2IPFjPKhjEjS4_jE6invokeERNS1_15function_bufferES4_j @272
    _ZN5boost6detail8function26void_function_obj_invoker2INS_3_bi6bind_tIvNS_4_mfi3mf2IvN4king3net3tcp12msg_server_tIjLj8192EEEPNS9_8server_tINS9_8msg_dataIjLj8192EEEEESt10shared_ptrINS9_8socket_tISE_EEEEENS3_5list3INS3_5valueIPSB_EENS_3argILi1EEENSQ_ILi2EEEEEEEvSG_SK_E6invokeERNS1_15function_bufferESG_SK_ @273
    _ZN5boost6detail8function26void_function_obj_invoker2INS_3_bi6bind_tIvPFvPFvPN4king3net3tcp12msg_server_tIjLj8192EEEPSt10shared_ptrINS7_8socket_tINS7_8msg_dataIjLj8192EEEEEEESA_SG_ENS3_5list3INS3_5valueISJ_EENS_3argILi1EEENSP_ILi2EEEEEEEvSA_SG_E6invokeERNS1_15function_bufferESA_SG_ @274
    _ZN5boost6detail8function26void_function_obj_invoker3INS_3_bi6bind_tIvNS_4_mfi3mf3IvN4king3net3tcp12msg_server_tIjLj8192EEEPNS9_8server_tINS9_8msg_dataIjLj8192EEEEESt10shared_ptrINS9_8socket_tISE_EEESH_INS7_5bytes7bytes_tEEEENS3_5list4INS3_5valueIPSB_EENS_3argILi1EEENST_ILi2EEENST_ILi3EEEEEEEvSG_SK_SN_E6invokeERNS1_15function_bufferESG_SK_SN_ @275
    _ZN5boost6detail8function26void_function_obj_invoker3INS_3_bi6bind_tIvPFvPFvPN4king3net3tcp12msg_server_tIjLj8192EEEPSt10shared_ptrINS7_8socket_tINS7_8msg_dataIjLj8192EEEEEEPSB_INS5_5bytes7bytes_tEEESA_SG_SK_ENS3_5list4INS3_5valueISN_EENS_3argILi1EEENST_ILi2EEENST_ILi3EEEEEEEvSA_SG_SK_E6invokeERNS1_15function_bufferESA_SG_SK_ @276
    _ZN5boost6detail8function26void_function_obj_invoker4INS_3_bi6bind_tIvNS_4_mfi3mf4IvN4king3net3tcp12msg_server_tIjLj8192EEEPNS9_8server_tINS9_8msg_dataIjLj8192EEEEESt10shared_ptrINS9_8socket_tISE_EEEPKhjEENS3_5list5INS3_5valueIPSB_EENS_3argILi1EEENSS_ILi2EEENSS_ILi3EEENSS_ILi4EEEEEEEvSG_SK_SM_jE6invokeERNS1_15function_bufferESG_SK_SM_j @277
    _ZN5boost6system10error_code21unspecified_bool_trueEv @278
    _ZN5boost6system12system_errorC2ERKS1_ @279
    _ZN5boost6system12system_errorD0Ev @280
    _ZN5boost6system12system_errorD1Ev @281
    _ZN5boost6system15system_categoryEv @282
    _ZN5boost6system16generic_categoryEv @283
    _ZN5boost6system6throwsE @284 DATA
    _ZN5boost6thread10timed_joinERKNS_10posix_time5ptimeE @285
    _ZN5boost6thread13join_noexceptEv @286
    _ZN5boost6thread13native_handleEv @287
    _ZN5boost6thread14release_handleEv @288
    _ZN5boost6thread20hardware_concurrencyEv @289
    _ZN5boost6thread20physical_concurrencyEv @290
    _ZN5boost6thread21start_thread_noexceptERKNS_17thread_attributesE @291
    _ZN5boost6thread21start_thread_noexceptEv @292
    _ZN5boost6thread26do_try_join_until_noexceptEyRb @293
    _ZN5boost6thread6detachEv @294
    _ZN5boost6thread9interruptEv @295
    _ZN5boost6threadC1ENS_13intrusive_ptrINS_6detail16thread_data_baseEEE @296
    _ZN5boost6threadC1Ev @297
    _ZN5boost6threadC2ENS_13intrusive_ptrINS_6detail16thread_data_baseEEE @298
    _ZN5boost6threadC2Ev @299
    _ZN5boost8functionIFvPN4king3net3tcp12msg_server_tIjLj8192EEESt10shared_ptrINS3_8socket_tINS3_8msg_dataIjLj8192EEEEEEEEaSERKSE_ @300
    _ZN5boost8functionIFvPN4king3net3tcp12msg_server_tIjLj8192EEESt10shared_ptrINS3_8socket_tINS3_8msg_dataIjLj8192EEEEEES7_INS1_5bytes7bytes_tEEEEaSERKSH_ @301
    _ZN5boost8functionIFvPN4king3net3tcp8server_tINS3_8msg_dataIjLj8192EEEEESt10shared_ptrINS3_8socket_tIS6_EEEEEaSERKSE_ @302
    _ZN5boost9date_time14microsec_clockINS_10posix_time5ptimeEE11create_timeEPFP2tmPKlS6_E @303
    _ZN5boost9date_time16counted_time_repINS_10posix_time33millisec_posix_time_system_configEEC1ERKNS_9gregorian4dateERKNS2_13time_durationE @304
    _ZN5boost9date_time19counted_time_systemINS0_16counted_time_repINS_10posix_time33millisec_posix_time_system_configEEEE14subtract_timesERKS5_S8_ @305
    _ZN5boost9date_time19counted_time_systemINS0_16counted_time_repINS_10posix_time33millisec_posix_time_system_configEEEE15get_time_of_dayERKS5_ @306
    _ZN5boost9date_time23gregorian_calendar_baseINS0_19year_month_day_baseINS_9gregorian9greg_yearENS3_10greg_monthENS3_8greg_dayEEEjE15from_day_numberEj @307
    _ZN5boost9date_time6c_time6gmtimeEPKlP2tm @308
    _ZN5boost9exceptionD2Ev @309
    _ZN5boost9function2IvPN4king3net3tcp12msg_server_tIjLj8192EEESt10shared_ptrINS3_8socket_tINS3_8msg_dataIjLj8192EEEEEEE11move_assignERSD_ @310
    _ZN5boost9function2IvPN4king3net3tcp12msg_server_tIjLj8192EEESt10shared_ptrINS3_8socket_tINS3_8msg_dataIjLj8192EEEEEEE5dummy7nonnullEv @311
    _ZN5boost9function2IvPN4king3net3tcp8server_tINS3_8msg_dataIjLj8192EEEEESt10shared_ptrINS3_8socket_tIS6_EEEE11move_assignERSD_ @312
    _ZN5boost9function2IvPN4king3net3tcp8server_tINS3_8msg_dataIjLj8192EEEEESt10shared_ptrINS3_8socket_tIS6_EEEE5dummy7nonnullEv @313
    _ZN5boost9function3IvPN4king3net3tcp12msg_server_tIjLj8192EEESt10shared_ptrINS3_8socket_tINS3_8msg_dataIjLj8192EEEEEES7_INS1_5bytes7bytes_tEEE11move_assignERSG_ @314
    _ZN5boost9function3IvPN4king3net3tcp12msg_server_tIjLj8192EEESt10shared_ptrINS3_8socket_tINS3_8msg_dataIjLj8192EEEEEES7_INS1_5bytes7bytes_tEEE5dummy7nonnullEv @315
    _ZN5boost9function3IvPN4king3net3tcp8server_tINS3_8msg_dataIjLj8192EEEEESt10shared_ptrINS3_8socket_tIS6_EEES9_INS1_5bytes7bytes_tEEE11move_assignERSG_ @316
    _ZN5boost9function3IvPN4king3net3tcp8server_tINS3_8msg_dataIjLj8192EEEEESt10shared_ptrINS3_8socket_tIS6_EEES9_INS1_5bytes7bytes_tEEE5dummy7nonnullEv @317
    _ZN5boost9function4IvPN4king3net3tcp8server_tINS3_8msg_dataIjLj8192EEEEESt10shared_ptrINS3_8socket_tIS6_EEEPKhjE11move_assignERSF_ @318
    _ZN5boost9function4IvPN4king3net3tcp8server_tINS3_8msg_dataIjLj8192EEEEESt10shared_ptrINS3_8socket_tIS6_EEEPKhjE5dummy7nonnullEv @319
    _ZN5boost9gregorian16bad_day_of_monthD0Ev @320
    _ZN5boost9gregorian16bad_day_of_monthD1Ev @321
    _ZN5boost9gregorian4dateC1ENS0_9greg_yearENS0_10greg_monthENS0_8greg_dayE @322
    _ZN5boost9gregorian8bad_yearD0Ev @323
    _ZN5boost9gregorian8bad_yearD1Ev @324
    _ZN5boost9gregorian9bad_monthD0Ev @325
    _ZN5boost9gregorian9bad_monthD1Ev @326
    _ZNK5boost10error_infoINS_27tag_original_exception_typeEPKSt9type_infoE17name_value_stringEv @327
    _ZNK5boost16exception_detail10clone_implINS0_10bad_alloc_EE5cloneEv @328
    _ZNK5boost16exception_detail10clone_implINS0_10bad_alloc_EE7rethrowEv @329
    _ZNK5boost16exception_detail10clone_implINS0_14bad_exception_EE5cloneEv @330
    _ZNK5boost16exception_detail10clone_implINS0_14bad_exception_EE7rethrowEv @331
    _ZNK5boost16exception_detail10clone_implINS0_19error_info_injectorINS_10lock_errorEEEE5cloneEv @332
    _ZNK5boost16exception_detail10clone_implINS0_19error_info_injectorINS_10lock_errorEEEE7rethrowEv @333
    _ZNK5boost16exception_detail10clone_implINS0_19error_info_injectorINS_17bad_function_callEEEE5cloneEv @334
    _ZNK5boost16exception_detail10clone_implINS0_19error_info_injectorINS_17bad_function_callEEEE7rethrowEv @335
    _ZNK5boost16exception_detail10clone_implINS0_19error_info_injectorINS_21thread_resource_errorEEEE5cloneEv @336
    _ZNK5boost16exception_detail10clone_implINS0_19error_info_injectorINS_21thread_resource_errorEEEE7rethrowEv @337
    _ZNK5boost16exception_detail10clone_implINS0_19error_info_injectorINS_6system12system_errorEEEE5cloneEv @338
    _ZNK5boost16exception_detail10clone_implINS0_19error_info_injectorINS_6system12system_errorEEEE7rethrowEv @339
    _ZNK5boost16exception_detail10clone_implINS0_19error_info_injectorINS_9gregorian16bad_day_of_monthEEEE5cloneEv @340
    _ZNK5boost16exception_detail10clone_implINS0_19error_info_injectorINS_9gregorian16bad_day_of_monthEEEE7rethrowEv @341
    _ZNK5boost16exception_detail10clone_implINS0_19error_info_injectorINS_9gregorian8bad_yearEEEE5cloneEv @342
    _ZNK5boost16exception_detail10clone_implINS0_19error_info_injectorINS_9gregorian8bad_yearEEEE7rethrowEv @343
    _ZNK5boost16exception_detail10clone_implINS0_19error_info_injectorINS_9gregorian9bad_monthEEEE5cloneEv @344
    _ZNK5boost16exception_detail10clone_implINS0_19error_info_injectorINS_9gregorian9bad_monthEEEE7rethrowEv @345
    _ZNK5boost16exception_detail10clone_implINS0_19error_info_injectorISt13runtime_errorEEE5cloneEv @346
    _ZNK5boost16exception_detail10clone_implINS0_19error_info_injectorISt13runtime_errorEEE7rethrowEv @347
    _ZNK5boost16exception_detail10clone_implINS0_19error_info_injectorISt9bad_allocEEE5cloneEv @348
    _ZNK5boost16exception_detail10clone_implINS0_19error_info_injectorISt9bad_allocEEE7rethrowEv @349
    _ZNK5boost16exception_detail25error_info_container_impl22diagnostic_informationEPKc @350
    _ZNK5boost16exception_detail25error_info_container_impl3getERKNS0_10type_info_E @351
    _ZNK5boost16exception_detail25error_info_container_impl5cloneEv @352
    _ZNK5boost16exception_detail25error_info_container_impl7add_refEv @353
    _ZNK5boost16exception_detail25error_info_container_impl7releaseEv @354
    _ZNK5boost4asio5error6detail13misc_category4nameEv @355
    _ZNK5boost4asio5error6detail13misc_category7messageB5cxx11Ei @356
    _ZNK5boost6detail7timeout22remaining_millisecondsEv @357
    _ZNK5boost6system12system_error4whatEv @358
    _ZNK5boost6system14error_category10equivalentERKNS0_10error_codeEi @359
    _ZNK5boost6system14error_category10equivalentEiRKNS0_15error_conditionE @360
    _ZNK5boost6system14error_category23default_error_conditionEi @361
    _ZNK5boost6thread15get_thread_infoEv @362
    _ZNK5boost6thread22interruption_requestedEv @363
    _ZNK5boost6thread6get_idEv @364
    _ZNK5boost6thread8joinableEv @365
    _ZNK5boost9date_time11int_adapterIxEmiIxEES2_RKNS1_IT_EE @366
    _ZNK5boost9date_time16counted_time_repINS_10posix_time33millisec_posix_time_system_configEE4dateEv @367
    _ZNK5boost9function2IvPN4king3net3tcp8server_tINS3_8msg_dataIjLj8192EEEEESt10shared_ptrINS3_8socket_tIS6_EEEEclES8_SC_ @368
    _ZNK5boost9function3IvPN4king3net3tcp12msg_server_tIjLj8192EEESt10shared_ptrINS3_8socket_tINS3_8msg_dataIjLj8192EEEEEES7_INS1_5bytes7bytes_tEEEclES6_SC_SF_ @369
    _ZNSt12__shared_ptrIN4king5bytes7bytes_tELN9__gnu_cxx12_Lock_policyE2EEC2ISaIS2_EJRjEEESt19_Sp_make_shared_tagRKT_DpOT0_ @370
    _ZNSt14__shared_countILN9__gnu_cxx12_Lock_policyE2EEC1ERKS2_ @371
    _ZNSt14__shared_countILN9__gnu_cxx12_Lock_policyE2EEaSERKS2_ @372
    _ZNSt16_Sp_counted_baseILN9__gnu_cxx12_Lock_policyE2EE10_M_destroyEv @373
    _ZNSt16_Sp_counted_baseILN9__gnu_cxx12_Lock_policyE2EE10_M_releaseEv @374
    _ZNSt19_Sp_counted_deleterIPvN5boost4asio6detail10socket_ops12noop_deleterESaIvELN9__gnu_cxx12_Lock_policyE2EE10_M_destroyEv @375
    _ZNSt19_Sp_counted_deleterIPvN5boost4asio6detail10socket_ops12noop_deleterESaIvELN9__gnu_cxx12_Lock_policyE2EE10_M_disposeEv @376
    _ZNSt19_Sp_counted_deleterIPvN5boost4asio6detail10socket_ops12noop_deleterESaIvELN9__gnu_cxx12_Lock_policyE2EE14_M_get_deleterERKSt9type_info @377
    _ZNSt19_Sp_counted_deleterIPvN5boost4asio6detail10socket_ops12noop_deleterESaIvELN9__gnu_cxx12_Lock_policyE2EED0Ev @378
    _ZNSt19_Sp_counted_deleterIPvN5boost4asio6detail10socket_ops12noop_deleterESaIvELN9__gnu_cxx12_Lock_policyE2EED1Ev @379
    _ZNSt23_Sp_counted_ptr_inplaceIN4king3net3tcp8socket_tINS2_8msg_dataIjLj8192EEEEESaIS6_ELN9__gnu_cxx12_Lock_policyE2EE10_M_destroyEv @380
    _ZNSt23_Sp_counted_ptr_inplaceIN4king3net3tcp8socket_tINS2_8msg_dataIjLj8192EEEEESaIS6_ELN9__gnu_cxx12_Lock_policyE2EE10_M_disposeEv @381
    _ZNSt23_Sp_counted_ptr_inplaceIN4king3net3tcp8socket_tINS2_8msg_dataIjLj8192EEEEESaIS6_ELN9__gnu_cxx12_Lock_policyE2EE14_M_get_deleterERKSt9type_info @382
    _ZNSt23_Sp_counted_ptr_inplaceIN4king3net3tcp8socket_tINS2_8msg_dataIjLj8192EEEEESaIS6_ELN9__gnu_cxx12_Lock_policyE2EED0Ev @383
    _ZNSt23_Sp_counted_ptr_inplaceIN4king3net3tcp8socket_tINS2_8msg_dataIjLj8192EEEEESaIS6_ELN9__gnu_cxx12_Lock_policyE2EED1Ev @384
    _ZNSt23_Sp_counted_ptr_inplaceIN4king5bytes15fragmentation_tESaIS2_ELN9__gnu_cxx12_Lock_policyE2EE10_M_destroyEv @385
    _ZNSt23_Sp_counted_ptr_inplaceIN4king5bytes15fragmentation_tESaIS2_ELN9__gnu_cxx12_Lock_policyE2EE10_M_disposeEv @386
    _ZNSt23_Sp_counted_ptr_inplaceIN4king5bytes15fragmentation_tESaIS2_ELN9__gnu_cxx12_Lock_policyE2EE14_M_get_deleterERKSt9type_info @387
    _ZNSt23_Sp_counted_ptr_inplaceIN4king5bytes15fragmentation_tESaIS2_ELN9__gnu_cxx12_Lock_policyE2EED0Ev @388
    _ZNSt23_Sp_counted_ptr_inplaceIN4king5bytes15fragmentation_tESaIS2_ELN9__gnu_cxx12_Lock_policyE2EED1Ev @389
    _ZNSt23_Sp_counted_ptr_inplaceIN4king5bytes7bytes_tESaIS2_ELN9__gnu_cxx12_Lock_policyE2EE10_M_destroyEv @390
    _ZNSt23_Sp_counted_ptr_inplaceIN4king5bytes7bytes_tESaIS2_ELN9__gnu_cxx12_Lock_policyE2EE10_M_disposeEv @391
    _ZNSt23_Sp_counted_ptr_inplaceIN4king5bytes7bytes_tESaIS2_ELN9__gnu_cxx12_Lock_policyE2EE14_M_get_deleterERKSt9type_info @392
    _ZNSt23_Sp_counted_ptr_inplaceIN4king5bytes7bytes_tESaIS2_ELN9__gnu_cxx12_Lock_policyE2EED0Ev @393
    _ZNSt23_Sp_counted_ptr_inplaceIN4king5bytes7bytes_tESaIS2_ELN9__gnu_cxx12_Lock_policyE2EED1Ev @394
    _ZNSt23_Sp_counted_ptr_inplaceIN4king5bytes8buffer_tESaIS2_ELN9__gnu_cxx12_Lock_policyE2EE10_M_destroyEv @395
    _ZNSt23_Sp_counted_ptr_inplaceIN4king5bytes8buffer_tESaIS2_ELN9__gnu_cxx12_Lock_policyE2EE10_M_disposeEv @396
    _ZNSt23_Sp_counted_ptr_inplaceIN4king5bytes8buffer_tESaIS2_ELN9__gnu_cxx12_Lock_policyE2EE14_M_get_deleterERKSt9type_info @397
    _ZNSt23_Sp_counted_ptr_inplaceIN4king5bytes8buffer_tESaIS2_ELN9__gnu_cxx12_Lock_policyE2EED0Ev @398
    _ZNSt23_Sp_counted_ptr_inplaceIN4king5bytes8buffer_tESaIS2_ELN9__gnu_cxx12_Lock_policyE2EED1Ev @399
    _ZNSt6vectorIN5boost10shared_ptrINS0_6detail17shared_state_baseEEESaIS4_EED1Ev @400
    _ZNSt6vectorISt4pairIPN5boost18condition_variableEPNS1_5mutexEESaIS6_EE13_M_insert_auxEN9__gnu_cxx17__normal_iteratorIPS6_S8_EERKS6_ @401
    _ZNSt6vectorISt4pairIPN5boost18condition_variableEPNS1_5mutexEESaIS6_EE19_M_emplace_back_auxIJS6_EEEvDpOT_ @402
    _ZNSt8_Rb_treeIN5boost16exception_detail10type_info_ESt4pairIKS2_NS0_10shared_ptrINS1_15error_info_baseEEEESt10_Select1stIS8_ESt4lessIS2_ESaIS8_EE24_M_get_insert_unique_posERS4_ @403
    _ZNSt8_Rb_treeIN5boost16exception_detail10type_info_ESt4pairIKS2_NS0_10shared_ptrINS1_15error_info_baseEEEESt10_Select1stIS8_ESt4lessIS2_ESaIS8_EE29_M_get_insert_hint_unique_posESt23_Rb_tree_const_iteratorIS8_ERS4_ @404
    _ZNSt8_Rb_treeIN5boost16exception_detail10type_info_ESt4pairIKS2_NS0_10shared_ptrINS1_15error_info_baseEEEESt10_Select1stIS8_ESt4lessIS2_ESaIS8_EE7_M_copyINSE_20_Reuse_or_alloc_nodeEEEPSt13_Rb_tree_nodeIS8_EPKSI_SJ_RT_ @405
    _ZNSt8_Rb_treeIN5boost16exception_detail10type_info_ESt4pairIKS2_NS0_10shared_ptrINS1_15error_info_baseEEEESt10_Select1stIS8_ESt4lessIS2_ESaIS8_EE8_M_eraseEPSt13_Rb_tree_nodeIS8_E @406
    _ZNSt8_Rb_treeIPKvSt4pairIKS1_N5boost6detail13tss_data_nodeEESt10_Select1stIS7_ESt4lessIS1_ESaIS7_EE16_M_insert_uniqueERKS7_ @407
    _ZNSt8_Rb_treeIPKvSt4pairIKS1_N5boost6detail13tss_data_nodeEESt10_Select1stIS7_ESt4lessIS1_ESaIS7_EE5eraseERS3_ @408
    _ZNSt8_Rb_treeIPKvSt4pairIKS1_N5boost6detail13tss_data_nodeEESt10_Select1stIS7_ESt4lessIS1_ESaIS7_EE8_M_eraseEPSt13_Rb_tree_nodeIS7_E @409
    _ZTIFjPKhjE @410 DATA
    _ZTIN4king5bytes7bytes_tE @411 DATA
    _ZTIN5boost10lock_errorE @412 DATA
    _ZTIN5boost12noncopyable_11noncopyableE @413 DATA
    _ZTIN5boost16exception_detail10bad_alloc_E @414 DATA
    _ZTIN5boost16exception_detail10clone_baseE @415 DATA
    _ZTIN5boost16exception_detail10clone_implINS0_10bad_alloc_EEE @416 DATA
    _ZTIN5boost16exception_detail10clone_implINS0_14bad_exception_EEE @417 DATA
    _ZTIN5boost16exception_detail10clone_implINS0_19error_info_injectorINS_10lock_errorEEEEE @418 DATA
    _ZTIN5boost16exception_detail10clone_implINS0_19error_info_injectorINS_17bad_function_callEEEEE @419 DATA
    _ZTIN5boost16exception_detail10clone_implINS0_19error_info_injectorINS_21thread_resource_errorEEEEE @420 DATA
    _ZTIN5boost16exception_detail10clone_implINS0_19error_info_injectorINS_6system12system_errorEEEEE @421 DATA
    _ZTIN5boost16exception_detail10clone_implINS0_19error_info_injectorINS_9gregorian16bad_day_of_monthEEEEE @422 DATA
    _ZTIN5boost16exception_detail10clone_implINS0_19error_info_injectorINS_9gregorian8bad_yearEEEEE @423 DATA
    _ZTIN5boost16exception_detail10clone_implINS0_19error_info_injectorINS_9gregorian9bad_monthEEEEE @424 DATA
    _ZTIN5boost16exception_detail10clone_implINS0_19error_info_injectorISt13runtime_errorEEEE @425 DATA
    _ZTIN5boost16exception_detail10clone_implINS0_19error_info_injectorISt9bad_allocEEEE @426 DATA
    _ZTIN5boost16exception_detail14bad_exception_E @427 DATA
    _ZTIN5boost16exception_detail19error_info_injectorINS_10lock_errorEEE @428 DATA
    _ZTIN5boost16exception_detail19error_info_injectorINS_17bad_function_callEEE @429 DATA
    _ZTIN5boost16exception_detail19error_info_injectorINS_21thread_resource_errorEEE @430 DATA
    _ZTIN5boost16exception_detail19error_info_injectorINS_6system12system_errorEEE @431 DATA
    _ZTIN5boost16exception_detail19error_info_injectorINS_9gregorian16bad_day_of_monthEEE @432 DATA
    _ZTIN5boost16exception_detail19error_info_injectorINS_9gregorian8bad_yearEEE @433 DATA
    _ZTIN5boost16exception_detail19error_info_injectorINS_9gregorian9bad_monthEEE @434 DATA
    _ZTIN5boost16exception_detail19error_info_injectorISt13runtime_errorEE @435 DATA
    _ZTIN5boost16exception_detail19error_info_injectorISt9bad_allocEE @436 DATA
    _ZTIN5boost16exception_detail20error_info_containerE @437 DATA
    _ZTIN5boost16exception_detail25error_info_container_implE @438 DATA
    _ZTIN5boost16thread_exceptionE @439 DATA
    _ZTIN5boost17bad_function_callE @440 DATA
    _ZTIN5boost18thread_interruptedE @441 DATA
    _ZTIN5boost21thread_resource_errorE @442 DATA
    _ZTIN5boost3_bi6bind_tIvNS_4_mfi3mf2IvN4king3net3tcp12msg_server_tIjLj8192EEEPNS6_8server_tINS6_8msg_dataIjLj8192EEEEESt10shared_ptrINS6_8socket_tISB_EEEEENS0_5list3INS0_5valueIPS8_EENS_3argILi1EEENSN_ILi2EEEEEEE @443 DATA
    _ZTIN5boost3_bi6bind_tIvNS_4_mfi3mf3IvN4king3net3tcp12msg_server_tIjLj8192EEEPNS6_8server_tINS6_8msg_dataIjLj8192EEEEESt10shared_ptrINS6_8socket_tISB_EEESE_INS4_5bytes7bytes_tEEEENS0_5list4INS0_5valueIPS8_EENS_3argILi1EEENSQ_ILi2EEENSQ_ILi3EEEEEEE @444 DATA
    _ZTIN5boost3_bi6bind_tIvNS_4_mfi3mf4IvN4king3net3tcp12msg_server_tIjLj8192EEEPNS6_8server_tINS6_8msg_dataIjLj8192EEEEESt10shared_ptrINS6_8socket_tISB_EEEPKhjEENS0_5list5INS0_5valueIPS8_EENS_3argILi1EEENSP_ILi2EEENSP_ILi3EEENSP_ILi4EEEEEEE @445 DATA
    _ZTIN5boost3_bi6bind_tIvPFvPFvPN4king3net3tcp12msg_server_tIjLj8192EEEPSt10shared_ptrINS4_8socket_tINS4_8msg_dataIjLj8192EEEEEEES7_SD_ENS0_5list3INS0_5valueISG_EENS_3argILi1EEENSM_ILi2EEEEEEE @446 DATA
    _ZTIN5boost3_bi6bind_tIvPFvPFvPN4king3net3tcp12msg_server_tIjLj8192EEEPSt10shared_ptrINS4_8socket_tINS4_8msg_dataIjLj8192EEEEEEPS8_INS2_5bytes7bytes_tEEES7_SD_SH_ENS0_5list4INS0_5valueISK_EENS_3argILi1EEENSQ_ILi2EEENSQ_ILi3EEEEEEE @447 DATA
    _ZTIN5boost4asio10io_service7serviceE @448 DATA
    _ZTIN5boost4asio21stream_socket_serviceINS0_2ip3tcpEEE @449 DATA
    _ZTIN5boost4asio23socket_acceptor_serviceINS0_2ip3tcpEEE @450 DATA
    _ZTIN5boost4asio5error6detail13misc_categoryE @451 DATA
    _ZTIN5boost4asio6detail10socket_ops12noop_deleterE @452 DATA
    _ZTIN5boost4asio6detail11noncopyableE @453 DATA
    _ZTIN5boost4asio6detail12service_baseINS0_21stream_socket_serviceINS0_2ip3tcpEEEEE @454 DATA
    _ZTIN5boost4asio6detail12service_baseINS0_23socket_acceptor_serviceINS0_2ip3tcpEEEEE @455 DATA
    _ZTIN5boost4asio6detail12service_baseINS1_19win_iocp_io_serviceEEE @456 DATA
    _ZTIN5boost4asio6detail14typeid_wrapperINS0_21stream_socket_serviceINS0_2ip3tcpEEEEE @457 DATA
    _ZTIN5boost4asio6detail14typeid_wrapperINS0_23socket_acceptor_serviceINS0_2ip3tcpEEEEE @458 DATA
    _ZTIN5boost4asio6detail14typeid_wrapperINS1_19win_iocp_io_serviceEEE @459 DATA
    _ZTIN5boost4asio6detail19win_iocp_io_serviceE @460 DATA
    _ZTIN5boost6detail11thread_dataINS_3_bi6bind_tIvNS_4_mfi3mf0IvN4king3net3tcp8server_tINS8_8msg_dataIjLj8192EEEEEEENS2_5list1INS2_5valueIPSC_EEEEEEEE @461 DATA
    _ZTIN5boost6detail15sp_counted_baseE @462 DATA
    _ZTIN5boost6detail16thread_data_baseE @463 DATA
    _ZTIN5boost6detail17sp_counted_impl_pINS_16exception_detail10clone_implINS2_10bad_alloc_EEEEE @464 DATA
    _ZTIN5boost6detail17sp_counted_impl_pINS_16exception_detail10clone_implINS2_14bad_exception_EEEEE @465 DATA
    _ZTIN5boost6system12system_errorE @466 DATA
    _ZTIN5boost6system14error_categoryE @467 DATA
    _ZTIN5boost9exceptionE @468 DATA
    _ZTIN5boost9gregorian16bad_day_of_monthE @469 DATA
    _ZTIN5boost9gregorian8bad_yearE @470 DATA
    _ZTIN5boost9gregorian9bad_monthE @471 DATA
    _ZTIPFjPKhjE @472 DATA
    _ZTISt11_Mutex_baseILN9__gnu_cxx12_Lock_policyE2EE @473 DATA
    _ZTISt11logic_error @474 DATA
    _ZTISt12out_of_range @475 DATA
    _ZTISt13bad_exception @476 DATA
    _ZTISt13runtime_error @477 DATA
    _ZTISt16_Sp_counted_baseILN9__gnu_cxx12_Lock_policyE2EE @478 DATA
    _ZTISt19_Sp_counted_deleterIPvN5boost4asio6detail10socket_ops12noop_deleterESaIvELN9__gnu_cxx12_Lock_policyE2EE @479 DATA
    _ZTISt19_Sp_make_shared_tag @480 DATA
    _ZTISt23_Sp_counted_ptr_inplaceIN4king3net3tcp8socket_tINS2_8msg_dataIjLj8192EEEEESaIS6_ELN9__gnu_cxx12_Lock_policyE2EE @481 DATA
    _ZTISt23_Sp_counted_ptr_inplaceIN4king5bytes15fragmentation_tESaIS2_ELN9__gnu_cxx12_Lock_policyE2EE @482 DATA
    _ZTISt23_Sp_counted_ptr_inplaceIN4king5bytes7bytes_tESaIS2_ELN9__gnu_cxx12_Lock_policyE2EE @483 DATA
    _ZTISt23_Sp_counted_ptr_inplaceIN4king5bytes8buffer_tESaIS2_ELN9__gnu_cxx12_Lock_policyE2EE @484 DATA
    _ZTISt9bad_alloc @485 DATA
    _ZTISt9exception @486 DATA
    _ZTSFjPKhjE @487 DATA
    _ZTSN4king5bytes7bytes_tE @488 DATA
    _ZTSN5boost10lock_errorE @489 DATA
    _ZTSN5boost12noncopyable_11noncopyableE @490 DATA
    _ZTSN5boost16exception_detail10bad_alloc_E @491 DATA
    _ZTSN5boost16exception_detail10clone_baseE @492 DATA
    _ZTSN5boost16exception_detail10clone_implINS0_10bad_alloc_EEE @493 DATA
    _ZTSN5boost16exception_detail10clone_implINS0_14bad_exception_EEE @494 DATA
    _ZTSN5boost16exception_detail10clone_implINS0_19error_info_injectorINS_10lock_errorEEEEE @495 DATA
    _ZTSN5boost16exception_detail10clone_implINS0_19error_info_injectorINS_17bad_function_callEEEEE @496 DATA
    _ZTSN5boost16exception_detail10clone_implINS0_19error_info_injectorINS_21thread_resource_errorEEEEE @497 DATA
    _ZTSN5boost16exception_detail10clone_implINS0_19error_info_injectorINS_6system12system_errorEEEEE @498 DATA
    _ZTSN5boost16exception_detail10clone_implINS0_19error_info_injectorINS_9gregorian16bad_day_of_monthEEEEE @499 DATA
    _ZTSN5boost16exception_detail10clone_implINS0_19error_info_injectorINS_9gregorian8bad_yearEEEEE @500 DATA
    _ZTSN5boost16exception_detail10clone_implINS0_19error_info_injectorINS_9gregorian9bad_monthEEEEE @501 DATA
    _ZTSN5boost16exception_detail10clone_implINS0_19error_info_injectorISt13runtime_errorEEEE @502 DATA
    _ZTSN5boost16exception_detail10clone_implINS0_19error_info_injectorISt9bad_allocEEEE @503 DATA
    _ZTSN5boost16exception_detail14bad_exception_E @504 DATA
    _ZTSN5boost16exception_detail19error_info_injectorINS_10lock_errorEEE @505 DATA
    _ZTSN5boost16exception_detail19error_info_injectorINS_17bad_function_callEEE @506 DATA
    _ZTSN5boost16exception_detail19error_info_injectorINS_21thread_resource_errorEEE @507 DATA
    _ZTSN5boost16exception_detail19error_info_injectorINS_6system12system_errorEEE @508 DATA
    _ZTSN5boost16exception_detail19error_info_injectorINS_9gregorian16bad_day_of_monthEEE @509 DATA
    _ZTSN5boost16exception_detail19error_info_injectorINS_9gregorian8bad_yearEEE @510 DATA
    _ZTSN5boost16exception_detail19error_info_injectorINS_9gregorian9bad_monthEEE @511 DATA
    _ZTSN5boost16exception_detail19error_info_injectorISt13runtime_errorEE @512 DATA
    _ZTSN5boost16exception_detail19error_info_injectorISt9bad_allocEE @513 DATA
    _ZTSN5boost16exception_detail20error_info_containerE @514 DATA
    _ZTSN5boost16exception_detail25error_info_container_implE @515 DATA
    _ZTSN5boost16thread_exceptionE @516 DATA
    _ZTSN5boost17bad_function_callE @517 DATA
    _ZTSN5boost18thread_interruptedE @518 DATA
    _ZTSN5boost21thread_resource_errorE @519 DATA
    _ZTSN5boost3_bi6bind_tIvNS_4_mfi3mf2IvN4king3net3tcp12msg_server_tIjLj8192EEEPNS6_8server_tINS6_8msg_dataIjLj8192EEEEESt10shared_ptrINS6_8socket_tISB_EEEEENS0_5list3INS0_5valueIPS8_EENS_3argILi1EEENSN_ILi2EEEEEEE @520 DATA
    _ZTSN5boost3_bi6bind_tIvNS_4_mfi3mf3IvN4king3net3tcp12msg_server_tIjLj8192EEEPNS6_8server_tINS6_8msg_dataIjLj8192EEEEESt10shared_ptrINS6_8socket_tISB_EEESE_INS4_5bytes7bytes_tEEEENS0_5list4INS0_5valueIPS8_EENS_3argILi1EEENSQ_ILi2EEENSQ_ILi3EEEEEEE @521 DATA
    _ZTSN5boost3_bi6bind_tIvNS_4_mfi3mf4IvN4king3net3tcp12msg_server_tIjLj8192EEEPNS6_8server_tINS6_8msg_dataIjLj8192EEEEESt10shared_ptrINS6_8socket_tISB_EEEPKhjEENS0_5list5INS0_5valueIPS8_EENS_3argILi1EEENSP_ILi2EEENSP_ILi3EEENSP_ILi4EEEEEEE @522 DATA
    _ZTSN5boost3_bi6bind_tIvPFvPFvPN4king3net3tcp12msg_server_tIjLj8192EEEPSt10shared_ptrINS4_8socket_tINS4_8msg_dataIjLj8192EEEEEEES7_SD_ENS0_5list3INS0_5valueISG_EENS_3argILi1EEENSM_ILi2EEEEEEE @523 DATA
    _ZTSN5boost3_bi6bind_tIvPFvPFvPN4king3net3tcp12msg_server_tIjLj8192EEEPSt10shared_ptrINS4_8socket_tINS4_8msg_dataIjLj8192EEEEEEPS8_INS2_5bytes7bytes_tEEES7_SD_SH_ENS0_5list4INS0_5valueISK_EENS_3argILi1EEENSQ_ILi2EEENSQ_ILi3EEEEEEE @524 DATA
    _ZTSN5boost4asio10io_service7serviceE @525 DATA
    _ZTSN5boost4asio21stream_socket_serviceINS0_2ip3tcpEEE @526 DATA
    _ZTSN5boost4asio23socket_acceptor_serviceINS0_2ip3tcpEEE @527 DATA
    _ZTSN5boost4asio5error6detail13misc_categoryE @528 DATA
    _ZTSN5boost4asio6detail10socket_ops12noop_deleterE @529 DATA
    _ZTSN5boost4asio6detail11noncopyableE @530 DATA
    _ZTSN5boost4asio6detail12service_baseINS0_21stream_socket_serviceINS0_2ip3tcpEEEEE @531 DATA
    _ZTSN5boost4asio6detail12service_baseINS0_23socket_acceptor_serviceINS0_2ip3tcpEEEEE @532 DATA
    _ZTSN5boost4asio6detail12service_baseINS1_19win_iocp_io_serviceEEE @533 DATA
    _ZTSN5boost4asio6detail14typeid_wrapperINS0_21stream_socket_serviceINS0_2ip3tcpEEEEE @534 DATA
    _ZTSN5boost4asio6detail14typeid_wrapperINS0_23socket_acceptor_serviceINS0_2ip3tcpEEEEE @535 DATA
    _ZTSN5boost4asio6detail14typeid_wrapperINS1_19win_iocp_io_serviceEEE @536 DATA
    _ZTSN5boost4asio6detail19win_iocp_io_serviceE @537 DATA
    _ZTSN5boost6detail11thread_dataINS_3_bi6bind_tIvNS_4_mfi3mf0IvN4king3net3tcp8server_tINS8_8msg_dataIjLj8192EEEEEEENS2_5list1INS2_5valueIPSC_EEEEEEEE @538 DATA
    _ZTSN5boost6detail15sp_counted_baseE @539 DATA
    _ZTSN5boost6detail16thread_data_baseE @540 DATA
    _ZTSN5boost6detail17sp_counted_impl_pINS_16exception_detail10clone_implINS2_10bad_alloc_EEEEE @541 DATA
    _ZTSN5boost6detail17sp_counted_impl_pINS_16exception_detail10clone_implINS2_14bad_exception_EEEEE @542 DATA
    _ZTSN5boost6system12system_errorE @543 DATA
    _ZTSN5boost6system14error_categoryE @544 DATA
    _ZTSN5boost9exceptionE @545 DATA
    _ZTSN5boost9gregorian16bad_day_of_monthE @546 DATA
    _ZTSN5boost9gregorian8bad_yearE @547 DATA
    _ZTSN5boost9gregorian9bad_monthE @548 DATA
    _ZTSPFjPKhjE @549 DATA
    _ZTSSt11_Mutex_baseILN9__gnu_cxx12_Lock_policyE2EE @550 DATA
    _ZTSSt11logic_error @551 DATA
    _ZTSSt12out_of_range @552 DATA
    _ZTSSt13bad_exception @553 DATA
    _ZTSSt13runtime_error @554 DATA
    _ZTSSt16_Sp_counted_baseILN9__gnu_cxx12_Lock_policyE2EE @555 DATA
    _ZTSSt19_Sp_counted_deleterIPvN5boost4asio6detail10socket_ops12noop_deleterESaIvELN9__gnu_cxx12_Lock_policyE2EE @556 DATA
    _ZTSSt19_Sp_make_shared_tag @557 DATA
    _ZTSSt23_Sp_counted_ptr_inplaceIN4king3net3tcp8socket_tINS2_8msg_dataIjLj8192EEEEESaIS6_ELN9__gnu_cxx12_Lock_policyE2EE @558 DATA
    _ZTSSt23_Sp_counted_ptr_inplaceIN4king5bytes15fragmentation_tESaIS2_ELN9__gnu_cxx12_Lock_policyE2EE @559 DATA
    _ZTSSt23_Sp_counted_ptr_inplaceIN4king5bytes7bytes_tESaIS2_ELN9__gnu_cxx12_Lock_policyE2EE @560 DATA
    _ZTSSt23_Sp_counted_ptr_inplaceIN4king5bytes8buffer_tESaIS2_ELN9__gnu_cxx12_Lock_policyE2EE @561 DATA
    _ZTSSt9bad_alloc @562 DATA
    _ZTSSt9exception @563 DATA
    _ZTTN5boost16exception_detail10clone_implINS0_10bad_alloc_EEE @564 DATA
    _ZTTN5boost16exception_detail10clone_implINS0_14bad_exception_EEE @565 DATA
    _ZTTN5boost16exception_detail10clone_implINS0_19error_info_injectorINS_10lock_errorEEEEE @566 DATA
    _ZTTN5boost16exception_detail10clone_implINS0_19error_info_injectorINS_17bad_function_callEEEEE @567 DATA
    _ZTTN5boost16exception_detail10clone_implINS0_19error_info_injectorINS_21thread_resource_errorEEEEE @568 DATA
    _ZTTN5boost16exception_detail10clone_implINS0_19error_info_injectorINS_6system12system_errorEEEEE @569 DATA
    _ZTTN5boost16exception_detail10clone_implINS0_19error_info_injectorINS_9gregorian16bad_day_of_monthEEEEE @570 DATA
    _ZTTN5boost16exception_detail10clone_implINS0_19error_info_injectorINS_9gregorian8bad_yearEEEEE @571 DATA
    _ZTTN5boost16exception_detail10clone_implINS0_19error_info_injectorINS_9gregorian9bad_monthEEEEE @572 DATA
    _ZTTN5boost16exception_detail10clone_implINS0_19error_info_injectorISt13runtime_errorEEEE @573 DATA
    _ZTTN5boost16exception_detail10clone_implINS0_19error_info_injectorISt9bad_allocEEEE @574 DATA
    _ZTVN4king5bytes7bytes_tE @575 DATA
    _ZTVN5boost10lock_errorE @576 DATA
    _ZTVN5boost16exception_detail10bad_alloc_E @577 DATA
    _ZTVN5boost16exception_detail10clone_baseE @578 DATA
    _ZTVN5boost16exception_detail10clone_implINS0_10bad_alloc_EEE @579 DATA
    _ZTVN5boost16exception_detail10clone_implINS0_14bad_exception_EEE @580 DATA
    _ZTVN5boost16exception_detail10clone_implINS0_19error_info_injectorINS_10lock_errorEEEEE @581 DATA
    _ZTVN5boost16exception_detail10clone_implINS0_19error_info_injectorINS_17bad_function_callEEEEE @582 DATA
    _ZTVN5boost16exception_detail10clone_implINS0_19error_info_injectorINS_21thread_resource_errorEEEEE @583 DATA
    _ZTVN5boost16exception_detail10clone_implINS0_19error_info_injectorINS_6system12system_errorEEEEE @584 DATA
    _ZTVN5boost16exception_detail10clone_implINS0_19error_info_injectorINS_9gregorian16bad_day_of_monthEEEEE @585 DATA
    _ZTVN5boost16exception_detail10clone_implINS0_19error_info_injectorINS_9gregorian8bad_yearEEEEE @586 DATA
    _ZTVN5boost16exception_detail10clone_implINS0_19error_info_injectorINS_9gregorian9bad_monthEEEEE @587 DATA
    _ZTVN5boost16exception_detail10clone_implINS0_19error_info_injectorISt13runtime_errorEEEE @588 DATA
    _ZTVN5boost16exception_detail10clone_implINS0_19error_info_injectorISt9bad_allocEEEE @589 DATA
    _ZTVN5boost16exception_detail14bad_exception_E @590 DATA
    _ZTVN5boost16exception_detail19error_info_injectorINS_10lock_errorEEE @591 DATA
    _ZTVN5boost16exception_detail19error_info_injectorINS_17bad_function_callEEE @592 DATA
    _ZTVN5boost16exception_detail19error_info_injectorINS_21thread_resource_errorEEE @593 DATA
    _ZTVN5boost16exception_detail19error_info_injectorINS_6system12system_errorEEE @594 DATA
    _ZTVN5boost16exception_detail19error_info_injectorINS_9gregorian16bad_day_of_monthEEE @595 DATA
    _ZTVN5boost16exception_detail19error_info_injectorINS_9gregorian8bad_yearEEE @596 DATA
    _ZTVN5boost16exception_detail19error_info_injectorINS_9gregorian9bad_monthEEE @597 DATA
    _ZTVN5boost16exception_detail19error_info_injectorISt13runtime_errorEE @598 DATA
    _ZTVN5boost16exception_detail19error_info_injectorISt9bad_allocEE @599 DATA
    _ZTVN5boost16exception_detail25error_info_container_implE @600 DATA
    _ZTVN5boost16thread_exceptionE @601 DATA
    _ZTVN5boost17bad_function_callE @602 DATA
    _ZTVN5boost21thread_resource_errorE @603 DATA
    _ZTVN5boost4asio21stream_socket_serviceINS0_2ip3tcpEEE @604 DATA
    _ZTVN5boost4asio23socket_acceptor_serviceINS0_2ip3tcpEEE @605 DATA
    _ZTVN5boost4asio5error6detail13misc_categoryE @606 DATA
    _ZTVN5boost4asio6detail19win_iocp_io_serviceE @607 DATA
    _ZTVN5boost6detail11thread_dataINS_3_bi6bind_tIvNS_4_mfi3mf0IvN4king3net3tcp8server_tINS8_8msg_dataIjLj8192EEEEEEENS2_5list1INS2_5valueIPSC_EEEEEEEE @608 DATA
    _ZTVN5boost6detail16thread_data_baseE @609 DATA
    _ZTVN5boost6detail17sp_counted_impl_pINS_16exception_detail10clone_implINS2_10bad_alloc_EEEEE @610 DATA
    _ZTVN5boost6detail17sp_counted_impl_pINS_16exception_detail10clone_implINS2_14bad_exception_EEEEE @611 DATA
    _ZTVN5boost6system12system_errorE @612 DATA
    _ZTVN5boost9exceptionE @613 DATA
    _ZTVN5boost9gregorian16bad_day_of_monthE @614 DATA
    _ZTVN5boost9gregorian8bad_yearE @615 DATA
    _ZTVN5boost9gregorian9bad_monthE @616 DATA
    _ZTVSt19_Sp_counted_deleterIPvN5boost4asio6detail10socket_ops12noop_deleterESaIvELN9__gnu_cxx12_Lock_policyE2EE @617 DATA
    _ZTVSt23_Sp_counted_ptr_inplaceIN4king3net3tcp8socket_tINS2_8msg_dataIjLj8192EEEEESaIS6_ELN9__gnu_cxx12_Lock_policyE2EE @618 DATA
    _ZTVSt23_Sp_counted_ptr_inplaceIN4king5bytes15fragmentation_tESaIS2_ELN9__gnu_cxx12_Lock_policyE2EE @619 DATA
    _ZTVSt23_Sp_counted_ptr_inplaceIN4king5bytes7bytes_tESaIS2_ELN9__gnu_cxx12_Lock_policyE2EE @620 DATA
    _ZTVSt23_Sp_counted_ptr_inplaceIN4king5bytes8buffer_tESaIS2_ELN9__gnu_cxx12_Lock_policyE2EE @621 DATA
    _ZThn20_N5boost16exception_detail10bad_alloc_D0Ev @622
    _ZThn20_N5boost16exception_detail10bad_alloc_D1Ev @623
    _ZThn20_N5boost16exception_detail10clone_implINS0_10bad_alloc_EED0Ev @624
    _ZThn20_N5boost16exception_detail10clone_implINS0_10bad_alloc_EED1Ev @625
    _ZThn20_N5boost16exception_detail10clone_implINS0_14bad_exception_EED0Ev @626
    _ZThn20_N5boost16exception_detail10clone_implINS0_14bad_exception_EED1Ev @627
    _ZThn20_N5boost16exception_detail14bad_exception_D0Ev @628
    _ZThn20_N5boost16exception_detail14bad_exception_D1Ev @629
    _ZThn40_N5boost16exception_detail10clone_implINS0_19error_info_injectorINS_10lock_errorEEEED0Ev @630
    _ZThn40_N5boost16exception_detail10clone_implINS0_19error_info_injectorINS_10lock_errorEEEED1Ev @631
    _ZThn40_N5boost16exception_detail10clone_implINS0_19error_info_injectorINS_21thread_resource_errorEEEED0Ev @632
    _ZThn40_N5boost16exception_detail10clone_implINS0_19error_info_injectorINS_21thread_resource_errorEEEED1Ev @633
    _ZThn40_N5boost16exception_detail10clone_implINS0_19error_info_injectorINS_6system12system_errorEEEED0Ev @634
    _ZThn40_N5boost16exception_detail10clone_implINS0_19error_info_injectorINS_6system12system_errorEEEED1Ev @635
    _ZThn40_N5boost16exception_detail19error_info_injectorINS_10lock_errorEED0Ev @636
    _ZThn40_N5boost16exception_detail19error_info_injectorINS_10lock_errorEED1Ev @637
    _ZThn40_N5boost16exception_detail19error_info_injectorINS_21thread_resource_errorEED0Ev @638
    _ZThn40_N5boost16exception_detail19error_info_injectorINS_21thread_resource_errorEED1Ev @639
    _ZThn40_N5boost16exception_detail19error_info_injectorINS_6system12system_errorEED0Ev @640
    _ZThn40_N5boost16exception_detail19error_info_injectorINS_6system12system_errorEED1Ev @641
    _ZThn4_N5boost16exception_detail10clone_implINS0_19error_info_injectorISt9bad_allocEEED0Ev @642
    _ZThn4_N5boost16exception_detail10clone_implINS0_19error_info_injectorISt9bad_allocEEED1Ev @643
    _ZThn4_N5boost16exception_detail19error_info_injectorISt9bad_allocED0Ev @644
    _ZThn4_N5boost16exception_detail19error_info_injectorISt9bad_allocED1Ev @645
    _ZThn8_N5boost16exception_detail10clone_implINS0_19error_info_injectorINS_17bad_function_callEEEED0Ev @646
    _ZThn8_N5boost16exception_detail10clone_implINS0_19error_info_injectorINS_17bad_function_callEEEED1Ev @647
    _ZThn8_N5boost16exception_detail10clone_implINS0_19error_info_injectorINS_9gregorian16bad_day_of_monthEEEED0Ev @648
    _ZThn8_N5boost16exception_detail10clone_implINS0_19error_info_injectorINS_9gregorian16bad_day_of_monthEEEED1Ev @649
    _ZThn8_N5boost16exception_detail10clone_implINS0_19error_info_injectorINS_9gregorian8bad_yearEEEED0Ev @650
    _ZThn8_N5boost16exception_detail10clone_implINS0_19error_info_injectorINS_9gregorian8bad_yearEEEED1Ev @651
    _ZThn8_N5boost16exception_detail10clone_implINS0_19error_info_injectorINS_9gregorian9bad_monthEEEED0Ev @652
    _ZThn8_N5boost16exception_detail10clone_implINS0_19error_info_injectorINS_9gregorian9bad_monthEEEED1Ev @653
    _ZThn8_N5boost16exception_detail10clone_implINS0_19error_info_injectorISt13runtime_errorEEED0Ev @654
    _ZThn8_N5boost16exception_detail10clone_implINS0_19error_info_injectorISt13runtime_errorEEED1Ev @655
    _ZThn8_N5boost16exception_detail19error_info_injectorINS_17bad_function_callEED0Ev @656
    _ZThn8_N5boost16exception_detail19error_info_injectorINS_17bad_function_callEED1Ev @657
    _ZThn8_N5boost16exception_detail19error_info_injectorINS_9gregorian16bad_day_of_monthEED0Ev @658
    _ZThn8_N5boost16exception_detail19error_info_injectorINS_9gregorian16bad_day_of_monthEED1Ev @659
    _ZThn8_N5boost16exception_detail19error_info_injectorINS_9gregorian8bad_yearEED0Ev @660
    _ZThn8_N5boost16exception_detail19error_info_injectorINS_9gregorian8bad_yearEED1Ev @661
    _ZThn8_N5boost16exception_detail19error_info_injectorINS_9gregorian9bad_monthEED0Ev @662
    _ZThn8_N5boost16exception_detail19error_info_injectorINS_9gregorian9bad_monthEED1Ev @663
    _ZThn8_N5boost16exception_detail19error_info_injectorISt13runtime_errorED0Ev @664
    _ZThn8_N5boost16exception_detail19error_info_injectorISt13runtime_errorED1Ev @665
    _ZTv0_n12_NK5boost16exception_detail10clone_implINS0_10bad_alloc_EE5cloneEv @666
    _ZTv0_n12_NK5boost16exception_detail10clone_implINS0_14bad_exception_EE5cloneEv @667
    _ZTv0_n12_NK5boost16exception_detail10clone_implINS0_19error_info_injectorINS_10lock_errorEEEE5cloneEv @668
    _ZTv0_n12_NK5boost16exception_detail10clone_implINS0_19error_info_injectorINS_17bad_function_callEEEE5cloneEv @669
    _ZTv0_n12_NK5boost16exception_detail10clone_implINS0_19error_info_injectorINS_21thread_resource_errorEEEE5cloneEv @670
    _ZTv0_n12_NK5boost16exception_detail10clone_implINS0_19error_info_injectorINS_6system12system_errorEEEE5cloneEv @671
    _ZTv0_n12_NK5boost16exception_detail10clone_implINS0_19error_info_injectorINS_9gregorian16bad_day_of_monthEEEE5cloneEv @672
    _ZTv0_n12_NK5boost16exception_detail10clone_implINS0_19error_info_injectorINS_9gregorian8bad_yearEEEE5cloneEv @673
    _ZTv0_n12_NK5boost16exception_detail10clone_implINS0_19error_info_injectorINS_9gregorian9bad_monthEEEE5cloneEv @674
    _ZTv0_n12_NK5boost16exception_detail10clone_implINS0_19error_info_injectorISt13runtime_errorEEE5cloneEv @675
    _ZTv0_n12_NK5boost16exception_detail10clone_implINS0_19error_info_injectorISt9bad_allocEEE5cloneEv @676
    _ZTv0_n16_NK5boost16exception_detail10clone_implINS0_10bad_alloc_EE7rethrowEv @677
    _ZTv0_n16_NK5boost16exception_detail10clone_implINS0_14bad_exception_EE7rethrowEv @678
    _ZTv0_n16_NK5boost16exception_detail10clone_implINS0_19error_info_injectorINS_10lock_errorEEEE7rethrowEv @679
    _ZTv0_n16_NK5boost16exception_detail10clone_implINS0_19error_info_injectorINS_17bad_function_callEEEE7rethrowEv @680
    _ZTv0_n16_NK5boost16exception_detail10clone_implINS0_19error_info_injectorINS_21thread_resource_errorEEEE7rethrowEv @681
    _ZTv0_n16_NK5boost16exception_detail10clone_implINS0_19error_info_injectorINS_6system12system_errorEEEE7rethrowEv @682
    _ZTv0_n16_NK5boost16exception_detail10clone_implINS0_19error_info_injectorINS_9gregorian16bad_day_of_monthEEEE7rethrowEv @683
    _ZTv0_n16_NK5boost16exception_detail10clone_implINS0_19error_info_injectorINS_9gregorian8bad_yearEEEE7rethrowEv @684
    _ZTv0_n16_NK5boost16exception_detail10clone_implINS0_19error_info_injectorINS_9gregorian9bad_monthEEEE7rethrowEv @685
    _ZTv0_n16_NK5boost16exception_detail10clone_implINS0_19error_info_injectorISt13runtime_errorEEE7rethrowEv @686
    _ZTv0_n16_NK5boost16exception_detail10clone_implINS0_19error_info_injectorISt9bad_allocEEE7rethrowEv @687
    _ZTv0_n20_N5boost16exception_detail10clone_implINS0_10bad_alloc_EED0Ev @688
    _ZTv0_n20_N5boost16exception_detail10clone_implINS0_10bad_alloc_EED1Ev @689
    _ZTv0_n20_N5boost16exception_detail10clone_implINS0_14bad_exception_EED0Ev @690
    _ZTv0_n20_N5boost16exception_detail10clone_implINS0_14bad_exception_EED1Ev @691
    _ZTv0_n20_N5boost16exception_detail10clone_implINS0_19error_info_injectorINS_10lock_errorEEEED0Ev @692
    _ZTv0_n20_N5boost16exception_detail10clone_implINS0_19error_info_injectorINS_10lock_errorEEEED1Ev @693
    _ZTv0_n20_N5boost16exception_detail10clone_implINS0_19error_info_injectorINS_17bad_function_callEEEED0Ev @694
    _ZTv0_n20_N5boost16exception_detail10clone_implINS0_19error_info_injectorINS_17bad_function_callEEEED1Ev @695
    _ZTv0_n20_N5boost16exception_detail10clone_implINS0_19error_info_injectorINS_21thread_resource_errorEEEED0Ev @696
    _ZTv0_n20_N5boost16exception_detail10clone_implINS0_19error_info_injectorINS_21thread_resource_errorEEEED1Ev @697
    _ZTv0_n20_N5boost16exception_detail10clone_implINS0_19error_info_injectorINS_6system12system_errorEEEED0Ev @698
    _ZTv0_n20_N5boost16exception_detail10clone_implINS0_19error_info_injectorINS_6system12system_errorEEEED1Ev @699
    _ZTv0_n20_N5boost16exception_detail10clone_implINS0_19error_info_injectorINS_9gregorian16bad_day_of_monthEEEED0Ev @700
    _ZTv0_n20_N5boost16exception_detail10clone_implINS0_19error_info_injectorINS_9gregorian16bad_day_of_monthEEEED1Ev @701
    _ZTv0_n20_N5boost16exception_detail10clone_implINS0_19error_info_injectorINS_9gregorian8bad_yearEEEED0Ev @702
    _ZTv0_n20_N5boost16exception_detail10clone_implINS0_19error_info_injectorINS_9gregorian8bad_yearEEEED1Ev @703
    _ZTv0_n20_N5boost16exception_detail10clone_implINS0_19error_info_injectorINS_9gregorian9bad_monthEEEED0Ev @704
    _ZTv0_n20_N5boost16exception_detail10clone_implINS0_19error_info_injectorINS_9gregorian9bad_monthEEEED1Ev @705
    _ZTv0_n20_N5boost16exception_detail10clone_implINS0_19error_info_injectorISt13runtime_errorEEED0Ev @706
    _ZTv0_n20_N5boost16exception_detail10clone_implINS0_19error_info_injectorISt13runtime_errorEEED1Ev @707
    _ZTv0_n20_N5boost16exception_detail10clone_implINS0_19error_info_injectorISt9bad_allocEEED0Ev @708
    _ZTv0_n20_N5boost16exception_detail10clone_implINS0_19error_info_injectorISt9bad_allocEEED1Ev @709
    _ZZN5boost16exception_detail27get_static_exception_objectINS0_10bad_alloc_EEENS_13exception_ptrEvE2ep @710 DATA
    _ZZN5boost16exception_detail27get_static_exception_objectINS0_14bad_exception_EEENS_13exception_ptrEvE2ep @711 DATA
    _ZZN5boost4asio5error17get_misc_categoryEvE8instance @712 DATA
    _ZZN5boost6detail5win3215GetTickCount64_EvE18gettickcount64impl @713 DATA
    _ZZN5boost6detail5win3223GetTickCount64emulationEvE5count @714 DATA
    _ZZN5boost9function2IjPKhjE9assign_toIPFjS2_jEEEvT_E13stored_vtable @715 DATA
    _ZZN5boost9function2IvPN4king3net3tcp12msg_server_tIjLj8192EEESt10shared_ptrINS3_8socket_tINS3_8msg_dataIjLj8192EEEEEEE9assign_toINS_3_bi6bind_tIvPFvPFvS6_PSC_ES6_SC_ENSF_5list3INSF_5valueISJ_EENS_3argILi1EEENSP_ILi2EEEEEEEEEvT_E13stored_vtable @716 DATA
    _ZZN5boost9function2IvPN4king3net3tcp8server_tINS3_8msg_dataIjLj8192EEEEESt10shared_ptrINS3_8socket_tIS6_EEEE9assign_toINS_3_bi6bind_tIvNS_4_mfi3mf2IvNS3_12msg_server_tIjLj8192EEES8_SC_EENSF_5list3INSF_5valueIPSK_EENS_3argILi1EEENSQ_ILi2EEEEEEEEEvT_E13stored_vtable @717 DATA
    _ZZN5boost9function3IvPN4king3net3tcp12msg_server_tIjLj8192EEESt10shared_ptrINS3_8socket_tINS3_8msg_dataIjLj8192EEEEEES7_INS1_5bytes7bytes_tEEE9assign_toINS_3_bi6bind_tIvPFvPFvS6_PSC_PSF_ES6_SC_SF_ENSI_5list4INSI_5valueISN_EENS_3argILi1EEENST_ILi2EEENST_ILi3EEEEEEEEEvT_E13stored_vtable @718 DATA
    _ZZN5boost9function3IvPN4king3net3tcp8server_tINS3_8msg_dataIjLj8192EEEEESt10shared_ptrINS3_8socket_tIS6_EEES9_INS1_5bytes7bytes_tEEE9assign_toINS_3_bi6bind_tIvNS_4_mfi3mf3IvNS3_12msg_server_tIjLj8192EEES8_SC_SF_EENSI_5list4INSI_5valueIPSN_EENS_3argILi1EEENST_ILi2EEENST_ILi3EEEEEEEEEvT_E13stored_vtable @719 DATA
    _ZZN5boost9function4IvPN4king3net3tcp8server_tINS3_8msg_dataIjLj8192EEEEESt10shared_ptrINS3_8socket_tIS6_EEEPKhjE9assign_toINS_3_bi6bind_tIvNS_4_mfi3mf4IvNS3_12msg_server_tIjLj8192EEES8_SC_SE_jEENSH_5list5INSH_5valueIPSM_EENS_3argILi1EEENSS_ILi2EEENSS_ILi3EEENSS_ILi4EEEEEEEEEvT_E13stored_vtable @720 DATA
    __crt_xl_tls_callback__ @721 DATA
    __deregister_frame @722
    __deregister_frame_info @723
    __deregister_frame_info_bases @724
    __frame_state_for @725
    __register_frame @726
    __register_frame_info @727
    __register_frame_info_bases @728
    __register_frame_info_table @729
    __register_frame_info_table_bases @730
    __register_frame_table @731
